; Function Attrs: mustprogress nounwind uwtable
define hidden noundef zeroext i1 @_ZN5clang7targets21WebAssemblyTargetInfo6setABIERKNSt7__cxx1112basic_stringIcSt11char_traitsIcESaIcEEE(ptr noundef nonnull align 8 dereferenceable(544) %0, ptr noundef nonnull align 8 dereferenceable(32) %1) unnamed_addr #0 align 2 {
  %3 = tail call noundef i32 @_ZNKSt7__cxx1112basic_stringIcSt11char_traitsIcESaIcEE7compareEPKc(ptr noundef nonnull align 8 dereferenceable(32) %1, ptr noundef nonnull @.str) #13
  %.not = icmp eq i32 %3, 0
  br i1 %.not, label %6, label %4

4:                                                ; preds = %2
  %5 = tail call noundef i32 @_ZNKSt7__cxx1112basic_stringIcSt11char_traitsIcESaIcEE7compareEPKc(ptr noundef nonnull align 8 dereferenceable(32) %1, ptr noundef nonnull @.str.1) #13
  %.not5 = icmp eq i32 %5, 0
  br i1 %.not5, label %6, label %9

6:                                                ; preds = %4, %2
  %7 = getelementptr inbounds nuw i8, ptr %0, i64 512
  %8 = tail call noundef nonnull align 8 dereferenceable(32) ptr @_ZNSt7__cxx1112basic_stringIcSt11char_traitsIcESaIcEEaSERKS4_(ptr noundef nonnull align 8 dereferenceable(32) %7, ptr noundef nonnull align 8 dereferenceable(32) %1) #13
  br label %9

9:                                                ; preds = %4, %6
  %.0 = phi i1 [ true, %6 ], [ false, %4 ]
  ret i1 %.0
}